
my_sysdig.ko:     file format elf64-x86-64


Disassembly of section .text:

0000000000000000 <lookup_tracepoints>:
   0:	e8 00 00 00 00       	callq  5 <lookup_tracepoints+0x5>
   5:	55                   	push   %rbp
   6:	48 89 e5             	mov    %rsp,%rbp
   9:	41 54                	push   %r12
   b:	53                   	push   %rbx
   c:	48 8b 1f             	mov    (%rdi),%rbx
   f:	49 89 fc             	mov    %rdi,%r12
  12:	48 8b 3d 00 00 00 00 	mov    0x0(%rip),%rdi        # 19 <lookup_tracepoints+0x19>
  19:	48 89 de             	mov    %rbx,%rsi
  1c:	e8 00 00 00 00       	callq  21 <lookup_tracepoints+0x21>
  21:	85 c0                	test   %eax,%eax
  23:	75 0b                	jne    30 <lookup_tracepoints+0x30>
  25:	4c 89 25 00 00 00 00 	mov    %r12,0x0(%rip)        # 2c <lookup_tracepoints+0x2c>
  2c:	49 8b 1c 24          	mov    (%r12),%rbx
  30:	48 8b 3d 00 00 00 00 	mov    0x0(%rip),%rdi        # 37 <lookup_tracepoints+0x37>
  37:	48 89 de             	mov    %rbx,%rsi
  3a:	e8 00 00 00 00       	callq  3f <lookup_tracepoints+0x3f>
  3f:	85 c0                	test   %eax,%eax
  41:	75 07                	jne    4a <lookup_tracepoints+0x4a>
  43:	4c 89 25 00 00 00 00 	mov    %r12,0x0(%rip)        # 4a <lookup_tracepoints+0x4a>
  4a:	5b                   	pop    %rbx
  4b:	41 5c                	pop    %r12
  4d:	5d                   	pop    %rbp
  4e:	c3                   	retq   
  4f:	90                   	nop

0000000000000050 <bitset_clear>:
  50:	e8 00 00 00 00       	callq  55 <bitset_clear+0x5>
  55:	55                   	push   %rbp
  56:	48 89 f9             	mov    %rdi,%rcx
  59:	48 c7 07 00 00 00 00 	movq   $0x0,(%rdi)
  60:	48 c7 87 e8 00 00 00 	movq   $0x0,0xe8(%rdi)
  67:	00 00 00 00 
  6b:	48 8d 7f 08          	lea    0x8(%rdi),%rdi
  6f:	31 c0                	xor    %eax,%eax
  71:	48 89 e5             	mov    %rsp,%rbp
  74:	48 83 e7 f8          	and    $0xfffffffffffffff8,%rdi
  78:	48 29 f9             	sub    %rdi,%rcx
  7b:	81 c1 f0 00 00 00    	add    $0xf0,%ecx
  81:	c1 e9 03             	shr    $0x3,%ecx
  84:	f3 48 ab             	rep stos %rax,%es:(%rdi)
  87:	5d                   	pop    %rbp
  88:	c3                   	retq   
  89:	0f 1f 80 00 00 00 00 	nopl   0x0(%rax)

0000000000000090 <bitset_get>:
  90:	e8 00 00 00 00       	callq  95 <bitset_get+0x5>
  95:	89 f0                	mov    %esi,%eax
  97:	ba 89 88 88 88       	mov    $0x88888889,%edx
  9c:	89 f1                	mov    %esi,%ecx
  9e:	f7 ea                	imul   %edx
  a0:	89 f0                	mov    %esi,%eax
  a2:	55                   	push   %rbp
  a3:	c1 f8 1f             	sar    $0x1f,%eax
  a6:	48 89 e5             	mov    %rsp,%rbp
  a9:	01 f2                	add    %esi,%edx
  ab:	c1 fa 04             	sar    $0x4,%edx
  ae:	29 c2                	sub    %eax,%edx
  b0:	48 63 c2             	movslq %edx,%rax
  b3:	6b d2 1e             	imul   $0x1e,%edx,%edx
  b6:	48 8b 04 c7          	mov    (%rdi,%rax,8),%rax
  ba:	5d                   	pop    %rbp
  bb:	29 d1                	sub    %edx,%ecx
  bd:	48 d3 e8             	shr    %cl,%rax
  c0:	83 e0 01             	and    $0x1,%eax
  c3:	c3                   	retq   
  c4:	66 90                	xchg   %ax,%ax
  c6:	66 2e 0f 1f 84 00 00 	nopw   %cs:0x0(%rax,%rax,1)
  cd:	00 00 00 

00000000000000d0 <bitset_set>:
  d0:	e8 00 00 00 00       	callq  d5 <bitset_set+0x5>
  d5:	41 89 d0             	mov    %edx,%r8d
  d8:	89 f0                	mov    %esi,%eax
  da:	ba 89 88 88 88       	mov    $0x88888889,%edx
  df:	f7 ea                	imul   %edx
  e1:	89 f0                	mov    %esi,%eax
  e3:	89 f1                	mov    %esi,%ecx
  e5:	c1 f8 1f             	sar    $0x1f,%eax
  e8:	55                   	push   %rbp
  e9:	01 f2                	add    %esi,%edx
  eb:	48 89 e5             	mov    %rsp,%rbp
  ee:	c1 fa 04             	sar    $0x4,%edx
  f1:	29 c2                	sub    %eax,%edx
  f3:	48 63 c2             	movslq %edx,%rax
  f6:	6b d2 1e             	imul   $0x1e,%edx,%edx
  f9:	48 8d 04 c7          	lea    (%rdi,%rax,8),%rax
  fd:	48 8b 38             	mov    (%rax),%rdi
 100:	29 d1                	sub    %edx,%ecx
 102:	ba 01 00 00 00       	mov    $0x1,%edx
 107:	d3 e2                	shl    %cl,%edx
 109:	45 85 c0             	test   %r8d,%r8d
 10c:	75 0d                	jne    11b <bitset_set+0x4b>
 10e:	f7 d2                	not    %edx
 110:	48 63 d2             	movslq %edx,%rdx
 113:	48 21 fa             	and    %rdi,%rdx
 116:	48 89 10             	mov    %rdx,(%rax)
 119:	5d                   	pop    %rbp
 11a:	c3                   	retq   
 11b:	48 63 d2             	movslq %edx,%rdx
 11e:	48 09 fa             	or     %rdi,%rdx
 121:	48 89 10             	mov    %rdx,(%rax)
 124:	5d                   	pop    %rbp
 125:	c3                   	retq   
 126:	66 2e 0f 1f 84 00 00 	nopw   %cs:0x0(%rax,%rax,1)
 12d:	00 00 00 

0000000000000130 <hashtable_get>:
 130:	e8 00 00 00 00       	callq  135 <hashtable_get+0x5>
 135:	89 f0                	mov    %esi,%eax
 137:	ba 37 48 60 80       	mov    $0x80604837,%edx
 13c:	89 f1                	mov    %esi,%ecx
 13e:	f7 ea                	imul   %edx
 140:	55                   	push   %rbp
 141:	48 89 e5             	mov    %rsp,%rbp
 144:	8d 04 32             	lea    (%rdx,%rsi,1),%eax
 147:	89 f2                	mov    %esi,%edx
 149:	c1 fa 1f             	sar    $0x1f,%edx
 14c:	c1 f8 09             	sar    $0x9,%eax
 14f:	29 d0                	sub    %edx,%eax
 151:	69 c0 fd 03 00 00    	imul   $0x3fd,%eax,%eax
 157:	29 c1                	sub    %eax,%ecx
 159:	48 63 c1             	movslq %ecx,%rax
 15c:	48 63 84 87 f0 60 00 	movslq 0x60f0(%rdi,%rax,4),%rax
 163:	00 
 164:	85 c0                	test   %eax,%eax
 166:	74 22                	je     18a <hashtable_get+0x5a>
 168:	48 8d 14 40          	lea    (%rax,%rax,2),%rdx
 16c:	3b 74 d7 04          	cmp    0x4(%rdi,%rdx,8),%esi
 170:	75 0c                	jne    17e <hashtable_get+0x4e>
 172:	eb 1a                	jmp    18e <hashtable_get+0x5e>
 174:	48 8d 14 40          	lea    (%rax,%rax,2),%rdx
 178:	39 74 d7 04          	cmp    %esi,0x4(%rdi,%rdx,8)
 17c:	74 10                	je     18e <hashtable_get+0x5e>
 17e:	48 8d 04 40          	lea    (%rax,%rax,2),%rax
 182:	48 63 04 c7          	movslq (%rdi,%rax,8),%rax
 186:	85 c0                	test   %eax,%eax
 188:	75 ea                	jne    174 <hashtable_get+0x44>
 18a:	31 c0                	xor    %eax,%eax
 18c:	5d                   	pop    %rbp
 18d:	c3                   	retq   
 18e:	48 8d 04 40          	lea    (%rax,%rax,2),%rax
 192:	5d                   	pop    %rbp
 193:	48 8d 44 c7 08       	lea    0x8(%rdi,%rax,8),%rax
 198:	c3                   	retq   
 199:	0f 1f 80 00 00 00 00 	nopl   0x0(%rax)

00000000000001a0 <hashtable_modify>:
 1a0:	e8 00 00 00 00       	callq  1a5 <hashtable_modify+0x5>
 1a5:	89 f0                	mov    %esi,%eax
 1a7:	49 89 d1             	mov    %rdx,%r9
 1aa:	ba 37 48 60 80       	mov    $0x80604837,%edx
 1af:	f7 ea                	imul   %edx
 1b1:	55                   	push   %rbp
 1b2:	48 89 e5             	mov    %rsp,%rbp
 1b5:	41 52                	push   %r10
 1b7:	49 89 ca             	mov    %rcx,%r10
 1ba:	8d 04 32             	lea    (%rdx,%rsi,1),%eax
 1bd:	89 f2                	mov    %esi,%edx
 1bf:	89 f1                	mov    %esi,%ecx
 1c1:	c1 fa 1f             	sar    $0x1f,%edx
 1c4:	c1 f8 09             	sar    $0x9,%eax
 1c7:	29 d0                	sub    %edx,%eax
 1c9:	69 c0 fd 03 00 00    	imul   $0x3fd,%eax,%eax
 1cf:	29 c1                	sub    %eax,%ecx
 1d1:	48 63 c1             	movslq %ecx,%rax
 1d4:	8b 94 87 f0 60 00 00 	mov    0x60f0(%rdi,%rax,4),%edx
 1db:	b8 ff ff ff ff       	mov    $0xffffffff,%eax
 1e0:	85 d2                	test   %edx,%edx
 1e2:	74 2c                	je     210 <hashtable_modify+0x70>
 1e4:	48 63 c2             	movslq %edx,%rax
 1e7:	48 8d 14 40          	lea    (%rax,%rax,2),%rdx
 1eb:	3b 74 d7 04          	cmp    0x4(%rdi,%rdx,8),%esi
 1ef:	75 0f                	jne    200 <hashtable_modify+0x60>
 1f1:	eb 21                	jmp    214 <hashtable_modify+0x74>
 1f3:	48 63 c2             	movslq %edx,%rax
 1f6:	48 8d 14 40          	lea    (%rax,%rax,2),%rdx
 1fa:	39 74 d7 04          	cmp    %esi,0x4(%rdi,%rdx,8)
 1fe:	74 14                	je     214 <hashtable_modify+0x74>
 200:	48 8d 04 40          	lea    (%rax,%rax,2),%rax
 204:	8b 14 c7             	mov    (%rdi,%rax,8),%edx
 207:	85 d2                	test   %edx,%edx
 209:	75 e8                	jne    1f3 <hashtable_modify+0x53>
 20b:	b8 ff ff ff ff       	mov    $0xffffffff,%eax
 210:	41 5a                	pop    %r10
 212:	5d                   	pop    %rbp
 213:	c3                   	retq   
 214:	48 8d 04 40          	lea    (%rax,%rax,2),%rax
 218:	4c 89 4c c7 08       	mov    %r9,0x8(%rdi,%rax,8)
 21d:	4c 89 54 c7 10       	mov    %r10,0x10(%rdi,%rax,8)
 222:	31 c0                	xor    %eax,%eax
 224:	41 5a                	pop    %r10
 226:	5d                   	pop    %rbp
 227:	c3                   	retq   
 228:	0f 1f 84 00 00 00 00 	nopl   0x0(%rax,%rax,1)
 22f:	00 

0000000000000230 <hashtable_delete>:
 230:	e8 00 00 00 00       	callq  235 <hashtable_delete+0x5>
 235:	89 f0                	mov    %esi,%eax
 237:	ba 37 48 60 80       	mov    $0x80604837,%edx
 23c:	89 f1                	mov    %esi,%ecx
 23e:	f7 ea                	imul   %edx
 240:	55                   	push   %rbp
 241:	48 89 e5             	mov    %rsp,%rbp
 244:	8d 04 32             	lea    (%rdx,%rsi,1),%eax
 247:	89 f2                	mov    %esi,%edx
 249:	c1 fa 1f             	sar    $0x1f,%edx
 24c:	c1 f8 09             	sar    $0x9,%eax
 24f:	29 d0                	sub    %edx,%eax
 251:	69 c0 fd 03 00 00    	imul   $0x3fd,%eax,%eax
 257:	29 c1                	sub    %eax,%ecx
 259:	48 63 c1             	movslq %ecx,%rax
 25c:	4c 8d 0c 87          	lea    (%rdi,%rax,4),%r9
 260:	b8 ff ff ff ff       	mov    $0xffffffff,%eax
 265:	4d 63 81 f0 60 00 00 	movslq 0x60f0(%r9),%r8
 26c:	45 85 c0             	test   %r8d,%r8d
 26f:	74 34                	je     2a5 <hashtable_delete+0x75>
 271:	49 63 c0             	movslq %r8d,%rax
 274:	48 8d 04 40          	lea    (%rax,%rax,2),%rax
 278:	48 8d 04 c7          	lea    (%rdi,%rax,8),%rax
 27c:	3b 70 04             	cmp    0x4(%rax),%esi
 27f:	8b 08                	mov    (%rax),%ecx
 281:	75 19                	jne    29c <hashtable_delete+0x6c>
 283:	eb 60                	jmp    2e5 <hashtable_delete+0xb5>
 285:	48 63 c1             	movslq %ecx,%rax
 288:	48 8d 04 40          	lea    (%rax,%rax,2),%rax
 28c:	48 8d 04 c7          	lea    (%rdi,%rax,8),%rax
 290:	39 70 04             	cmp    %esi,0x4(%rax)
 293:	8b 10                	mov    (%rax),%edx
 295:	74 10                	je     2a7 <hashtable_delete+0x77>
 297:	4c 63 c1             	movslq %ecx,%r8
 29a:	89 d1                	mov    %edx,%ecx
 29c:	85 c9                	test   %ecx,%ecx
 29e:	75 e5                	jne    285 <hashtable_delete+0x55>
 2a0:	b8 ff ff ff ff       	mov    $0xffffffff,%eax
 2a5:	5d                   	pop    %rbp
 2a6:	c3                   	retq   
 2a7:	45 85 c0             	test   %r8d,%r8d
 2aa:	7e 3e                	jle    2ea <hashtable_delete+0xba>
 2ac:	4b 8d 04 40          	lea    (%r8,%r8,2),%rax
 2b0:	89 14 c7             	mov    %edx,(%rdi,%rax,8)
 2b3:	89 c8                	mov    %ecx,%eax
 2b5:	ba 89 88 88 88       	mov    $0x88888889,%edx
 2ba:	f7 ea                	imul   %edx
 2bc:	89 c8                	mov    %ecx,%eax
 2be:	c1 f8 1f             	sar    $0x1f,%eax
 2c1:	01 ca                	add    %ecx,%edx
 2c3:	c1 fa 04             	sar    $0x4,%edx
 2c6:	29 c2                	sub    %eax,%edx
 2c8:	b8 fe ff ff ff       	mov    $0xfffffffe,%eax
 2cd:	48 63 f2             	movslq %edx,%rsi
 2d0:	6b d2 1e             	imul   $0x1e,%edx,%edx
 2d3:	29 d1                	sub    %edx,%ecx
 2d5:	d3 c0                	rol    %cl,%eax
 2d7:	48 98                	cltq   
 2d9:	48 21 84 f7 00 60 00 	and    %rax,0x6000(%rdi,%rsi,8)
 2e0:	00 
 2e1:	31 c0                	xor    %eax,%eax
 2e3:	5d                   	pop    %rbp
 2e4:	c3                   	retq   
 2e5:	89 ca                	mov    %ecx,%edx
 2e7:	44 89 c1             	mov    %r8d,%ecx
 2ea:	41 89 91 f0 60 00 00 	mov    %edx,0x60f0(%r9)
 2f1:	eb c0                	jmp    2b3 <hashtable_delete+0x83>
 2f3:	0f 1f 00             	nopl   (%rax)
 2f6:	66 2e 0f 1f 84 00 00 	nopw   %cs:0x0(%rax,%rax,1)
 2fd:	00 00 00 

0000000000000300 <__hashtable_next_pos>:
 300:	e8 00 00 00 00       	callq  305 <__hashtable_next_pos+0x5>
 305:	8b 87 e4 70 00 00    	mov    0x70e4(%rdi),%eax
 30b:	55                   	push   %rbp
 30c:	48 89 e5             	mov    %rsp,%rbp
 30f:	8d 48 01             	lea    0x1(%rax),%ecx
 312:	81 f9 ff 03 00 00    	cmp    $0x3ff,%ecx
 318:	7f 2d                	jg     347 <__hashtable_next_pos+0x47>
 31a:	89 c8                	mov    %ecx,%eax
 31c:	ba 89 88 88 88       	mov    $0x88888889,%edx
 321:	f7 ea                	imul   %edx
 323:	89 c8                	mov    %ecx,%eax
 325:	c1 f8 1f             	sar    $0x1f,%eax
 328:	01 ca                	add    %ecx,%edx
 32a:	c1 fa 04             	sar    $0x4,%edx
 32d:	29 c2                	sub    %eax,%edx
 32f:	89 c8                	mov    %ecx,%eax
 331:	48 63 f2             	movslq %edx,%rsi
 334:	6b d2 1e             	imul   $0x1e,%edx,%edx
 337:	29 d0                	sub    %edx,%eax
 339:	48 8b 94 f7 00 60 00 	mov    0x6000(%rdi,%rsi,8),%rdx
 340:	00 
 341:	48 0f a3 c2          	bt     %rax,%rdx
 345:	73 38                	jae    37f <__hashtable_next_pos+0x7f>
 347:	b9 01 00 00 00       	mov    $0x1,%ecx
 34c:	41 b8 89 88 88 88    	mov    $0x88888889,%r8d
 352:	eb 0b                	jmp    35f <__hashtable_next_pos+0x5f>
 354:	83 c1 01             	add    $0x1,%ecx
 357:	81 f9 00 04 00 00    	cmp    $0x400,%ecx
 35d:	74 24                	je     383 <__hashtable_next_pos+0x83>
 35f:	89 c8                	mov    %ecx,%eax
 361:	41 f7 e0             	mul    %r8d
 364:	89 c8                	mov    %ecx,%eax
 366:	c1 ea 04             	shr    $0x4,%edx
 369:	48 63 f2             	movslq %edx,%rsi
 36c:	6b d2 1e             	imul   $0x1e,%edx,%edx
 36f:	29 d0                	sub    %edx,%eax
 371:	48 8b 94 f7 00 60 00 	mov    0x6000(%rdi,%rsi,8),%rdx
 378:	00 
 379:	48 0f a3 c2          	bt     %rax,%rdx
 37d:	72 d5                	jb     354 <__hashtable_next_pos+0x54>
 37f:	89 c8                	mov    %ecx,%eax
 381:	5d                   	pop    %rbp
 382:	c3                   	retq   
 383:	b9 ff ff ff ff       	mov    $0xffffffff,%ecx
 388:	eb f5                	jmp    37f <__hashtable_next_pos+0x7f>
 38a:	66 0f 1f 44 00 00    	nopw   0x0(%rax,%rax,1)

0000000000000390 <hashtable_put>:
 390:	e8 00 00 00 00       	callq  395 <hashtable_put+0x5>
 395:	55                   	push   %rbp
 396:	89 f0                	mov    %esi,%eax
 398:	48 89 e5             	mov    %rsp,%rbp
 39b:	41 57                	push   %r15
 39d:	41 56                	push   %r14
 39f:	41 55                	push   %r13
 3a1:	49 89 d5             	mov    %rdx,%r13
 3a4:	ba 37 48 60 80       	mov    $0x80604837,%edx
 3a9:	f7 ea                	imul   %edx
 3ab:	49 89 ce             	mov    %rcx,%r14
 3ae:	89 f1                	mov    %esi,%ecx
 3b0:	41 54                	push   %r12
 3b2:	41 52                	push   %r10
 3b4:	53                   	push   %rbx
 3b5:	8d 04 32             	lea    (%rdx,%rsi,1),%eax
 3b8:	89 f2                	mov    %esi,%edx
 3ba:	c1 fa 1f             	sar    $0x1f,%edx
 3bd:	c1 f8 09             	sar    $0x9,%eax
 3c0:	29 d0                	sub    %edx,%eax
 3c2:	69 c0 fd 03 00 00    	imul   $0x3fd,%eax,%eax
 3c8:	29 c1                	sub    %eax,%ecx
 3ca:	48 63 c1             	movslq %ecx,%rax
 3cd:	4c 8d 3c 87          	lea    (%rdi,%rax,4),%r15
 3d1:	b8 ff ff ff ff       	mov    $0xffffffff,%eax
 3d6:	41 8b 97 f0 60 00 00 	mov    0x60f0(%r15),%edx
 3dd:	85 d2                	test   %edx,%edx
 3df:	75 10                	jne    3f1 <hashtable_put+0x61>
 3e1:	e9 95 00 00 00       	jmpq   47b <hashtable_put+0xeb>
 3e6:	8b 14 c7             	mov    (%rdi,%rax,8),%edx
 3e9:	85 d2                	test   %edx,%edx
 3eb:	0f 84 97 00 00 00    	je     488 <hashtable_put+0xf8>
 3f1:	48 63 c2             	movslq %edx,%rax
 3f4:	48 8d 14 40          	lea    (%rax,%rax,2),%rdx
 3f8:	48 8d 04 40          	lea    (%rax,%rax,2),%rax
 3fc:	3b 74 d7 04          	cmp    0x4(%rdi,%rdx,8),%esi
 400:	75 e4                	jne    3e6 <hashtable_put+0x56>
 402:	48 8d 44 c7 08       	lea    0x8(%rdi,%rax,8),%rax
 407:	48 85 c0             	test   %rax,%rax
 40a:	74 7c                	je     488 <hashtable_put+0xf8>
 40c:	41 89 f4             	mov    %esi,%r12d
 40f:	48 89 fb             	mov    %rdi,%rbx
 412:	e8 00 00 00 00       	callq  417 <hashtable_put+0x87>
 417:	85 c0                	test   %eax,%eax
 419:	89 c6                	mov    %eax,%esi
 41b:	78 6b                	js     488 <hashtable_put+0xf8>
 41d:	ba 89 88 88 88       	mov    $0x88888889,%edx
 422:	89 f1                	mov    %esi,%ecx
 424:	83 83 e4 70 00 00 01 	addl   $0x1,0x70e4(%rbx)
 42b:	f7 ea                	imul   %edx
 42d:	89 f0                	mov    %esi,%eax
 42f:	c1 f8 1f             	sar    $0x1f,%eax
 432:	01 f2                	add    %esi,%edx
 434:	c1 fa 04             	sar    $0x4,%edx
 437:	29 c2                	sub    %eax,%edx
 439:	b8 01 00 00 00       	mov    $0x1,%eax
 43e:	48 63 fa             	movslq %edx,%rdi
 441:	6b d2 1e             	imul   $0x1e,%edx,%edx
 444:	29 d1                	sub    %edx,%ecx
 446:	d3 e0                	shl    %cl,%eax
 448:	48 98                	cltq   
 44a:	48 09 84 fb 00 60 00 	or     %rax,0x6000(%rbx,%rdi,8)
 451:	00 
 452:	48 63 c6             	movslq %esi,%rax
 455:	48 8d 04 40          	lea    (%rax,%rax,2),%rax
 459:	41 8b 97 f0 60 00 00 	mov    0x60f0(%r15),%edx
 460:	48 8d 04 c3          	lea    (%rbx,%rax,8),%rax
 464:	89 10                	mov    %edx,(%rax)
 466:	44 89 60 04          	mov    %r12d,0x4(%rax)
 46a:	4c 89 68 08          	mov    %r13,0x8(%rax)
 46e:	4c 89 70 10          	mov    %r14,0x10(%rax)
 472:	31 c0                	xor    %eax,%eax
 474:	41 89 b7 f0 60 00 00 	mov    %esi,0x60f0(%r15)
 47b:	5b                   	pop    %rbx
 47c:	41 5a                	pop    %r10
 47e:	41 5c                	pop    %r12
 480:	41 5d                	pop    %r13
 482:	41 5e                	pop    %r14
 484:	41 5f                	pop    %r15
 486:	5d                   	pop    %rbp
 487:	c3                   	retq   
 488:	5b                   	pop    %rbx
 489:	b8 ff ff ff ff       	mov    $0xffffffff,%eax
 48e:	41 5a                	pop    %r10
 490:	41 5c                	pop    %r12
 492:	41 5d                	pop    %r13
 494:	41 5e                	pop    %r14
 496:	41 5f                	pop    %r15
 498:	5d                   	pop    %rbp
 499:	c3                   	retq   
 49a:	66 0f 1f 44 00 00    	nopw   0x0(%rax,%rax,1)

00000000000004a0 <check_proc_pid>:
 4a0:	e8 00 00 00 00       	callq  4a5 <check_proc_pid+0x5>
 4a5:	55                   	push   %rbp
 4a6:	65 48 8b 04 25 00 00 	mov    %gs:0x0,%rax
 4ad:	00 00 
 4af:	39 b8 a8 08 00 00    	cmp    %edi,0x8a8(%rax)
 4b5:	48 89 e5             	mov    %rsp,%rbp
 4b8:	5d                   	pop    %rbp
 4b9:	0f 94 c0             	sete   %al
 4bc:	c3                   	retq   
 4bd:	0f 1f 00             	nopl   (%rax)

00000000000004c0 <get_process_name>:
 4c0:	e8 00 00 00 00       	callq  4c5 <get_process_name+0x5>
 4c5:	55                   	push   %rbp
 4c6:	65 48 8b 04 25 00 00 	mov    %gs:0x0,%rax
 4cd:	00 00 
 4cf:	48 89 e5             	mov    %rsp,%rbp
 4d2:	48 05 50 0a 00 00    	add    $0xa50,%rax
 4d8:	5d                   	pop    %rbp
 4d9:	c3                   	retq   
 4da:	66 0f 1f 44 00 00    	nopw   0x0(%rax,%rax,1)

00000000000004e0 <check_proc_name>:
 4e0:	e8 00 00 00 00       	callq  4e5 <check_proc_name+0x5>
 4e5:	55                   	push   %rbp
 4e6:	48 89 e5             	mov    %rsp,%rbp
 4e9:	41 54                	push   %r12
 4eb:	53                   	push   %rbx
 4ec:	49 89 fc             	mov    %rdi,%r12
 4ef:	e8 00 00 00 00       	callq  4f4 <check_proc_name+0x14>
 4f4:	65 48 8b 1c 25 00 00 	mov    %gs:0x0,%rbx
 4fb:	00 00 
 4fd:	ba 0f 00 00 00       	mov    $0xf,%edx
 502:	48 83 f8 0f          	cmp    $0xf,%rax
 506:	48 8d bb 50 0a 00 00 	lea    0xa50(%rbx),%rdi
 50d:	48 0f 46 d0          	cmovbe %rax,%rdx
 511:	4c 89 e6             	mov    %r12,%rsi
 514:	e8 00 00 00 00       	callq  519 <check_proc_name+0x39>
 519:	85 c0                	test   %eax,%eax
 51b:	5b                   	pop    %rbx
 51c:	0f 94 c0             	sete   %al
 51f:	41 5c                	pop    %r12
 521:	5d                   	pop    %rbp
 522:	c3                   	retq   
 523:	0f 1f 00             	nopl   (%rax)
 526:	66 2e 0f 1f 84 00 00 	nopw   %cs:0x0(%rax,%rax,1)
 52d:	00 00 00 

0000000000000530 <syscall_enter_probe>:
 530:	e8 00 00 00 00       	callq  535 <syscall_enter_probe+0x5>
 535:	55                   	push   %rbp
 536:	48 89 e5             	mov    %rsp,%rbp
 539:	41 52                	push   %r10
 53b:	53                   	push   %rbx
 53c:	8b 05 00 00 00 00    	mov    0x0(%rip),%eax        # 542 <syscall_enter_probe+0x12>
 542:	48 89 f3             	mov    %rsi,%rbx
 545:	85 c0                	test   %eax,%eax
 547:	74 1b                	je     564 <syscall_enter_probe+0x34>
 549:	65 48 8b 14 25 00 00 	mov    %gs:0x0,%rdx
 550:	00 00 
 552:	39 82 a8 08 00 00    	cmp    %eax,0x8a8(%rdx)
 558:	0f 94 c0             	sete   %al
 55b:	84 c0                	test   %al,%al
 55d:	75 11                	jne    570 <syscall_enter_probe+0x40>
 55f:	5b                   	pop    %rbx
 560:	41 5a                	pop    %r10
 562:	5d                   	pop    %rbp
 563:	c3                   	retq   
 564:	48 8b 3d 00 00 00 00 	mov    0x0(%rip),%rdi        # 56b <syscall_enter_probe+0x3b>
 56b:	80 3f 00             	cmpb   $0x0,(%rdi)
 56e:	75 51                	jne    5c1 <syscall_enter_probe+0x91>
 570:	48 c7 c7 00 00 00 00 	mov    $0x0,%rdi
 577:	e8 00 00 00 00       	callq  57c <syscall_enter_probe+0x4c>
 57c:	48 63 53 50          	movslq 0x50(%rbx),%rdx
 580:	48 8b 4b 70          	mov    0x70(%rbx),%rcx
 584:	48 c7 c7 00 00 00 00 	mov    $0x0,%rdi
 58b:	65 48 8b 04 25 00 00 	mov    %gs:0x0,%rax
 592:	00 00 
 594:	8b b0 a8 08 00 00    	mov    0x8a8(%rax),%esi
 59a:	e8 00 00 00 00       	callq  59f <syscall_enter_probe+0x6f>
 59f:	48 83 05 00 00 00 00 	addq   $0x1,0x0(%rip)        # 5a7 <syscall_enter_probe+0x77>
 5a6:	01 
 5a7:	48 c7 c7 00 00 00 00 	mov    $0x0,%rdi
 5ae:	ff 14 25 00 00 00 00 	callq  *0x0
 5b5:	ff 14 25 00 00 00 00 	callq  *0x0
 5bc:	5b                   	pop    %rbx
 5bd:	41 5a                	pop    %r10
 5bf:	5d                   	pop    %rbp
 5c0:	c3                   	retq   
 5c1:	e8 00 00 00 00       	callq  5c6 <syscall_enter_probe+0x96>
 5c6:	eb 93                	jmp    55b <syscall_enter_probe+0x2b>
 5c8:	0f 1f 84 00 00 00 00 	nopl   0x0(%rax,%rax,1)
 5cf:	00 

00000000000005d0 <check_proc>:
 5d0:	e8 00 00 00 00       	callq  5d5 <check_proc+0x5>
 5d5:	55                   	push   %rbp
 5d6:	85 ff                	test   %edi,%edi
 5d8:	48 89 e5             	mov    %rsp,%rbp
 5db:	75 0c                	jne    5e9 <check_proc+0x19>
 5dd:	80 3e 00             	cmpb   $0x0,(%rsi)
 5e0:	b8 01 00 00 00       	mov    $0x1,%eax
 5e5:	75 16                	jne    5fd <check_proc+0x2d>
 5e7:	5d                   	pop    %rbp
 5e8:	c3                   	retq   
 5e9:	65 48 8b 04 25 00 00 	mov    %gs:0x0,%rax
 5f0:	00 00 
 5f2:	39 b8 a8 08 00 00    	cmp    %edi,0x8a8(%rax)
 5f8:	5d                   	pop    %rbp
 5f9:	0f 94 c0             	sete   %al
 5fc:	c3                   	retq   
 5fd:	48 89 f7             	mov    %rsi,%rdi
 600:	e8 00 00 00 00       	callq  605 <check_proc+0x35>
 605:	5d                   	pop    %rbp
 606:	c3                   	retq   
 607:	66 0f 1f 84 00 00 00 	nopw   0x0(%rax,%rax,1)
 60e:	00 00 

0000000000000610 <file_open>:
 610:	e8 00 00 00 00       	callq  615 <file_open+0x5>
 615:	55                   	push   %rbp
 616:	48 89 e5             	mov    %rsp,%rbp
 619:	41 57                	push   %r15
 61b:	41 56                	push   %r14
 61d:	41 55                	push   %r13
 61f:	41 54                	push   %r12
 621:	49 89 fd             	mov    %rdi,%r13
 624:	53                   	push   %rbx
 625:	41 89 f6             	mov    %esi,%r14d
 628:	41 89 d4             	mov    %edx,%r12d
 62b:	48 c7 c6 00 00 00 00 	mov    $0x0,%rsi
 632:	48 c7 c2 00 00 00 00 	mov    $0x0,%rdx
 639:	48 c7 c7 00 00 00 00 	mov    $0x0,%rdi
 640:	e8 00 00 00 00       	callq  645 <file_open+0x35>
 645:	65 48 8b 1c 25 00 00 	mov    %gs:0x0,%rbx
 64c:	00 00 
 64e:	4c 8b bb 58 13 00 00 	mov    0x1358(%rbx),%r15
 655:	48 c7 83 58 13 00 00 	movq   $0xffffffffffffffff,0x1358(%rbx)
 65c:	ff ff ff ff 
 660:	f0 80 4b 03 80       	lock orb $0x80,0x3(%rbx)
 665:	41 0f b7 d4          	movzwl %r12w,%edx
 669:	44 89 f6             	mov    %r14d,%esi
 66c:	4c 89 ef             	mov    %r13,%rdi
 66f:	e8 00 00 00 00       	callq  674 <file_open+0x64>
 674:	4c 89 bb 58 13 00 00 	mov    %r15,0x1358(%rbx)
 67b:	f0 80 4b 03 80       	lock orb $0x80,0x3(%rbx)
 680:	ba 00 00 00 00       	mov    $0x0,%edx
 685:	48 3d 01 f0 ff ff    	cmp    $0xfffffffffffff001,%rax
 68b:	5b                   	pop    %rbx
 68c:	48 0f 43 c2          	cmovae %rdx,%rax
 690:	41 5c                	pop    %r12
 692:	41 5d                	pop    %r13
 694:	41 5e                	pop    %r14
 696:	41 5f                	pop    %r15
 698:	5d                   	pop    %rbp
 699:	c3                   	retq   
 69a:	66 0f 1f 44 00 00    	nopw   0x0(%rax,%rax,1)

00000000000006a0 <close_record_file>:
 6a0:	e8 00 00 00 00       	callq  6a5 <close_record_file+0x5>
 6a5:	55                   	push   %rbp
 6a6:	48 8b 3d 00 00 00 00 	mov    0x0(%rip),%rdi        # 6ad <close_record_file+0xd>
 6ad:	31 f6                	xor    %esi,%esi
 6af:	48 89 e5             	mov    %rsp,%rbp
 6b2:	e8 00 00 00 00       	callq  6b7 <close_record_file+0x17>
 6b7:	5d                   	pop    %rbp
 6b8:	c3                   	retq   
 6b9:	0f 1f 80 00 00 00 00 	nopl   0x0(%rax)

00000000000006c0 <file_write>:
 6c0:	e8 00 00 00 00       	callq  6c5 <file_write+0x5>
 6c5:	55                   	push   %rbp
 6c6:	48 89 e5             	mov    %rsp,%rbp
 6c9:	41 54                	push   %r12
 6cb:	53                   	push   %rbx
 6cc:	65 48 8b 1c 25 00 00 	mov    %gs:0x0,%rbx
 6d3:	00 00 
 6d5:	4c 8b a3 58 13 00 00 	mov    0x1358(%rbx),%r12
 6dc:	48 c7 83 58 13 00 00 	movq   $0xffffffffffffffff,0x1358(%rbx)
 6e3:	ff ff ff ff 
 6e7:	f0 80 4b 03 80       	lock orb $0x80,0x3(%rbx)
 6ec:	48 8b 05 00 00 00 00 	mov    0x0(%rip),%rax        # 6f3 <file_write+0x33>
 6f3:	89 d2                	mov    %edx,%edx
 6f5:	48 8d 48 68          	lea    0x68(%rax),%rcx
 6f9:	e8 00 00 00 00       	callq  6fe <file_write+0x3e>
 6fe:	4c 89 a3 58 13 00 00 	mov    %r12,0x1358(%rbx)
 705:	f0 80 4b 03 80       	lock orb $0x80,0x3(%rbx)
 70a:	5b                   	pop    %rbx
 70b:	41 5c                	pop    %r12
 70d:	5d                   	pop    %rbp
 70e:	c3                   	retq   
 70f:	90                   	nop

0000000000000710 <dump_to_file>:
 710:	e8 00 00 00 00       	callq  715 <dump_to_file+0x5>
 715:	55                   	push   %rbp
 716:	48 8b 15 00 00 00 00 	mov    0x0(%rip),%rdx        # 71d <dump_to_file+0xd>
 71d:	48 c7 c7 00 00 00 00 	mov    $0x0,%rdi
 724:	48 8b 35 00 00 00 00 	mov    0x0(%rip),%rsi        # 72b <dump_to_file+0x1b>
 72b:	48 89 e5             	mov    %rsp,%rbp
 72e:	e8 00 00 00 00       	callq  733 <dump_to_file+0x23>
 733:	8b 15 00 00 00 00    	mov    0x0(%rip),%edx        # 739 <dump_to_file+0x29>
 739:	48 8b 3d 00 00 00 00 	mov    0x0(%rip),%rdi        # 740 <dump_to_file+0x30>
 740:	48 c7 c6 00 00 00 00 	mov    $0x0,%rsi
 747:	e8 00 00 00 00       	callq  74c <dump_to_file+0x3c>
 74c:	48 c7 05 00 00 00 00 	movq   $0x0,0x0(%rip)        # 757 <dump_to_file+0x47>
 753:	00 00 00 00 
 757:	5d                   	pop    %rbp
 758:	c3                   	retq   
 759:	0f 1f 80 00 00 00 00 	nopl   0x0(%rax)

0000000000000760 <get_arg0>:
 760:	e8 00 00 00 00       	callq  765 <get_arg0+0x5>
 765:	55                   	push   %rbp
 766:	48 8b 47 70          	mov    0x70(%rdi),%rax
 76a:	48 89 e5             	mov    %rsp,%rbp
 76d:	5d                   	pop    %rbp
 76e:	c3                   	retq   
 76f:	90                   	nop

0000000000000770 <get_syscall_no>:
 770:	e8 00 00 00 00       	callq  775 <get_syscall_no+0x5>
 775:	55                   	push   %rbp
 776:	48 8b 47 50          	mov    0x50(%rdi),%rax
 77a:	48 89 e5             	mov    %rsp,%rbp
 77d:	5d                   	pop    %rbp
 77e:	c3                   	retq   
 77f:	90                   	nop

0000000000000780 <get_syscall_res>:
 780:	e8 00 00 00 00       	callq  785 <get_syscall_res+0x5>
 785:	55                   	push   %rbp
 786:	48 8b 47 50          	mov    0x50(%rdi),%rax
 78a:	48 89 e5             	mov    %rsp,%rbp
 78d:	5d                   	pop    %rbp
 78e:	c3                   	retq   
 78f:	90                   	nop

0000000000000790 <get_arg1>:
 790:	e8 00 00 00 00       	callq  795 <get_arg1+0x5>
 795:	55                   	push   %rbp
 796:	48 8b 47 68          	mov    0x68(%rdi),%rax
 79a:	48 89 e5             	mov    %rsp,%rbp
 79d:	5d                   	pop    %rbp
 79e:	c3                   	retq   
 79f:	90                   	nop

00000000000007a0 <get_arg2>:
 7a0:	e8 00 00 00 00       	callq  7a5 <get_arg2+0x5>
 7a5:	55                   	push   %rbp
 7a6:	48 8b 47 60          	mov    0x60(%rdi),%rax
 7aa:	48 89 e5             	mov    %rsp,%rbp
 7ad:	5d                   	pop    %rbp
 7ae:	c3                   	retq   
 7af:	90                   	nop

00000000000007b0 <get_arg3>:
 7b0:	e8 00 00 00 00       	callq  7b5 <get_arg3+0x5>
 7b5:	55                   	push   %rbp
 7b6:	48 8b 47 38          	mov    0x38(%rdi),%rax
 7ba:	48 89 e5             	mov    %rsp,%rbp
 7bd:	5d                   	pop    %rbp
 7be:	c3                   	retq   
 7bf:	90                   	nop

00000000000007c0 <get_arg4>:
 7c0:	e8 00 00 00 00       	callq  7c5 <get_arg4+0x5>
 7c5:	55                   	push   %rbp
 7c6:	48 8b 47 48          	mov    0x48(%rdi),%rax
 7ca:	48 89 e5             	mov    %rsp,%rbp
 7cd:	5d                   	pop    %rbp
 7ce:	c3                   	retq   
 7cf:	90                   	nop

00000000000007d0 <get_arg5>:
 7d0:	e8 00 00 00 00       	callq  7d5 <get_arg5+0x5>
 7d5:	55                   	push   %rbp
 7d6:	48 8b 47 40          	mov    0x40(%rdi),%rax
 7da:	48 89 e5             	mov    %rsp,%rbp
 7dd:	5d                   	pop    %rbp
 7de:	c3                   	retq   
 7df:	90                   	nop

00000000000007e0 <get_syscall_name>:
 7e0:	e8 00 00 00 00       	callq  7e5 <get_syscall_name+0x5>
 7e5:	55                   	push   %rbp
 7e6:	48 63 c7             	movslq %edi,%rax
 7e9:	48 c1 e0 05          	shl    $0x5,%rax
 7ed:	48 89 e5             	mov    %rsp,%rbp
 7f0:	48 05 00 00 00 00    	add    $0x0,%rax
 7f6:	5d                   	pop    %rbp
 7f7:	c3                   	retq   
 7f8:	0f 1f 84 00 00 00 00 	nopl   0x0(%rax,%rax,1)
 7ff:	00 

0000000000000800 <gen_record_str>:
 800:	e8 00 00 00 00       	callq  805 <gen_record_str+0x5>
 805:	55                   	push   %rbp
 806:	48 c1 e2 05          	shl    $0x5,%rdx
 80a:	65 48 8b 04 25 00 00 	mov    %gs:0x0,%rax
 811:	00 00 
 813:	48 8d 8a 00 00 00 00 	lea    0x0(%rdx),%rcx
 81a:	48 05 50 0a 00 00    	add    $0xa50,%rax
 820:	8b 90 58 fe ff ff    	mov    -0x1a8(%rax),%edx
 826:	48 89 e5             	mov    %rsp,%rbp
 829:	50                   	push   %rax
 82a:	ff 76 40             	pushq  0x40(%rsi)
 82d:	ff 76 48             	pushq  0x48(%rsi)
 830:	ff 76 38             	pushq  0x38(%rsi)
 833:	ff 76 60             	pushq  0x60(%rsi)
 836:	ff 76 68             	pushq  0x68(%rsi)
 839:	4c 8b 4e 70          	mov    0x70(%rsi),%r9
 83d:	4c 8b 46 50          	mov    0x50(%rsi),%r8
 841:	48 c7 c6 00 00 00 00 	mov    $0x0,%rsi
 848:	e8 00 00 00 00       	callq  84d <gen_record_str+0x4d>
 84d:	48 83 c4 30          	add    $0x30,%rsp
 851:	c9                   	leaveq 
 852:	c3                   	retq   
 853:	0f 1f 00             	nopl   (%rax)
 856:	66 2e 0f 1f 84 00 00 	nopw   %cs:0x0(%rax,%rax,1)
 85d:	00 00 00 

0000000000000860 <syscall_exit_probe.part.3>:
 860:	e8 00 00 00 00       	callq  865 <syscall_exit_probe.part.3+0x5>
 865:	55                   	push   %rbp
 866:	48 89 e5             	mov    %rsp,%rbp
 869:	41 55                	push   %r13
 86b:	41 54                	push   %r12
 86d:	53                   	push   %rbx
 86e:	48 89 fb             	mov    %rdi,%rbx
 871:	48 c7 c7 00 00 00 00 	mov    $0x0,%rdi
 878:	48 81 ec 88 00 00 00 	sub    $0x88,%rsp
 87f:	65 48 8b 04 25 28 00 	mov    %gs:0x28,%rax
 886:	00 00 
 888:	48 89 45 e0          	mov    %rax,-0x20(%rbp)
 88c:	31 c0                	xor    %eax,%eax
 88e:	e8 00 00 00 00       	callq  893 <syscall_exit_probe.part.3+0x33>
 893:	65 48 8b 04 25 00 00 	mov    %gs:0x0,%rax
 89a:	00 00 
 89c:	8b 88 a8 08 00 00    	mov    0x8a8(%rax),%ecx
 8a2:	ba 37 48 60 80       	mov    $0x80604837,%edx
 8a7:	48 c7 c7 00 00 00 00 	mov    $0x0,%rdi
 8ae:	89 c8                	mov    %ecx,%eax
 8b0:	89 ce                	mov    %ecx,%esi
 8b2:	f7 ea                	imul   %edx
 8b4:	8d 04 0a             	lea    (%rdx,%rcx,1),%eax
 8b7:	89 ca                	mov    %ecx,%edx
 8b9:	c1 fa 1f             	sar    $0x1f,%edx
 8bc:	c1 f8 09             	sar    $0x9,%eax
 8bf:	29 d0                	sub    %edx,%eax
 8c1:	69 c0 fd 03 00 00    	imul   $0x3fd,%eax,%eax
 8c7:	29 c6                	sub    %eax,%esi
 8c9:	48 63 c6             	movslq %esi,%rax
 8cc:	48 63 04 85 00 00 00 	movslq 0x0(,%rax,4),%rax
 8d3:	00 
 8d4:	85 c0                	test   %eax,%eax
 8d6:	75 0e                	jne    8e6 <syscall_exit_probe.part.3+0x86>
 8d8:	eb 23                	jmp    8fd <syscall_exit_probe.part.3+0x9d>
 8da:	48 8d 04 40          	lea    (%rax,%rax,2),%rax
 8de:	48 63 04 c7          	movslq (%rdi,%rax,8),%rax
 8e2:	85 c0                	test   %eax,%eax
 8e4:	74 17                	je     8fd <syscall_exit_probe.part.3+0x9d>
 8e6:	48 8d 14 40          	lea    (%rax,%rax,2),%rdx
 8ea:	3b 4c d7 04          	cmp    0x4(%rdi,%rdx,8),%ecx
 8ee:	75 ea                	jne    8da <syscall_exit_probe.part.3+0x7a>
 8f0:	be 52 bf 01 00       	mov    $0x1bf52,%esi
 8f5:	41 b8 52 bf 01 00    	mov    $0x1bf52,%r8d
 8fb:	eb 10                	jmp    90d <syscall_exit_probe.part.3+0xad>
 8fd:	4c 8b 04 25 00 00 00 	mov    0x0,%r8
 904:	00 
 905:	48 8b 34 25 08 00 00 	mov    0x8,%rsi
 90c:	00 
 90d:	65 48 8b 04 25 00 00 	mov    %gs:0x0,%rax
 914:	00 00 
 916:	44 8b 88 a8 08 00 00 	mov    0x8a8(%rax),%r9d
 91d:	ba 37 48 60 80       	mov    $0x80604837,%edx
 922:	44 89 c8             	mov    %r9d,%eax
 925:	f7 ea                	imul   %edx
 927:	44 89 c8             	mov    %r9d,%eax
 92a:	c1 f8 1f             	sar    $0x1f,%eax
 92d:	44 01 ca             	add    %r9d,%edx
 930:	c1 fa 09             	sar    $0x9,%edx
 933:	29 c2                	sub    %eax,%edx
 935:	44 89 c8             	mov    %r9d,%eax
 938:	69 d2 fd 03 00 00    	imul   $0x3fd,%edx,%edx
 93e:	29 d0                	sub    %edx,%eax
 940:	48 63 d0             	movslq %eax,%rdx
 943:	4c 63 1c 95 00 00 00 	movslq 0x0(,%rdx,4),%r11
 94a:	00 
 94b:	45 85 db             	test   %r11d,%r11d
 94e:	74 3a                	je     98a <syscall_exit_probe.part.3+0x12a>
 950:	49 63 c3             	movslq %r11d,%rax
 953:	48 8d 04 40          	lea    (%rax,%rax,2),%rax
 957:	48 8d 04 c7          	lea    (%rdi,%rax,8),%rax
 95b:	44 39 48 04          	cmp    %r9d,0x4(%rax)
 95f:	8b 08                	mov    (%rax),%ecx
 961:	75 23                	jne    986 <syscall_exit_probe.part.3+0x126>
 963:	e9 67 01 00 00       	jmpq   acf <syscall_exit_probe.part.3+0x26f>
 968:	48 63 c1             	movslq %ecx,%rax
 96b:	48 8d 04 40          	lea    (%rax,%rax,2),%rax
 96f:	48 8d 04 c7          	lea    (%rdi,%rax,8),%rax
 973:	44 3b 48 04          	cmp    0x4(%rax),%r9d
 977:	44 8b 10             	mov    (%rax),%r10d
 97a:	0f 84 e0 00 00 00    	je     a60 <syscall_exit_probe.part.3+0x200>
 980:	4c 63 d9             	movslq %ecx,%r11
 983:	44 89 d1             	mov    %r10d,%ecx
 986:	85 c9                	test   %ecx,%ecx
 988:	75 de                	jne    968 <syscall_exit_probe.part.3+0x108>
 98a:	49 c7 c4 00 00 00 00 	mov    $0x0,%r12
 991:	4c 89 e7             	mov    %r12,%rdi
 994:	ff 14 25 00 00 00 00 	callq  *0x0
 99b:	ff 14 25 00 00 00 00 	callq  *0x0
 9a2:	48 8d bd 60 ff ff ff 	lea    -0xa0(%rbp),%rdi
 9a9:	48 89 f1             	mov    %rsi,%rcx
 9ac:	4c 89 c2             	mov    %r8,%rdx
 9af:	48 89 de             	mov    %rbx,%rsi
 9b2:	e8 00 00 00 00       	callq  9b7 <syscall_exit_probe.part.3+0x157>
 9b7:	48 8d bd 60 ff ff ff 	lea    -0xa0(%rbp),%rdi
 9be:	be 80 00 00 00       	mov    $0x80,%esi
 9c3:	e8 00 00 00 00       	callq  9c8 <syscall_exit_probe.part.3+0x168>
 9c8:	48 3d 80 00 00 00    	cmp    $0x80,%rax
 9ce:	48 89 c3             	mov    %rax,%rbx
 9d1:	0f 87 20 01 00 00    	ja     af7 <syscall_exit_probe.part.3+0x297>
 9d7:	0f 84 0e 01 00 00    	je     aeb <syscall_exit_probe.part.3+0x28b>
 9dd:	48 8b 05 00 00 00 00 	mov    0x0(%rip),%rax        # 9e4 <syscall_exit_probe.part.3+0x184>
 9e4:	48 01 d8             	add    %rbx,%rax
 9e7:	48 3d ff ff 7f 00    	cmp    $0x7fffff,%rax
 9ed:	0f 87 ad 00 00 00    	ja     aa0 <syscall_exit_probe.part.3+0x240>
 9f3:	48 c7 c7 00 00 00 00 	mov    $0x0,%rdi
 9fa:	e8 00 00 00 00       	callq  9ff <syscall_exit_probe.part.3+0x19f>
 9ff:	4c 8b 2d 00 00 00 00 	mov    0x0(%rip),%r13        # a06 <syscall_exit_probe.part.3+0x1a6>
 a06:	48 8d b5 60 ff ff ff 	lea    -0xa0(%rbp),%rsi
 a0d:	48 89 da             	mov    %rbx,%rdx
 a10:	49 8d bd 00 00 00 00 	lea    0x0(%r13),%rdi
 a17:	4c 01 eb             	add    %r13,%rbx
 a1a:	e8 00 00 00 00       	callq  a1f <syscall_exit_probe.part.3+0x1bf>
 a1f:	48 89 1d 00 00 00 00 	mov    %rbx,0x0(%rip)        # a26 <syscall_exit_probe.part.3+0x1c6>
 a26:	48 83 05 00 00 00 00 	addq   $0x1,0x0(%rip)        # a2e <syscall_exit_probe.part.3+0x1ce>
 a2d:	01 
 a2e:	4c 89 e7             	mov    %r12,%rdi
 a31:	ff 14 25 00 00 00 00 	callq  *0x0
 a38:	ff 14 25 00 00 00 00 	callq  *0x0
 a3f:	48 8b 45 e0          	mov    -0x20(%rbp),%rax
 a43:	65 48 33 04 25 28 00 	xor    %gs:0x28,%rax
 a4a:	00 00 
 a4c:	0f 85 94 00 00 00    	jne    ae6 <syscall_exit_probe.part.3+0x286>
 a52:	48 81 c4 88 00 00 00 	add    $0x88,%rsp
 a59:	5b                   	pop    %rbx
 a5a:	41 5c                	pop    %r12
 a5c:	41 5d                	pop    %r13
 a5e:	5d                   	pop    %rbp
 a5f:	c3                   	retq   
 a60:	45 85 db             	test   %r11d,%r11d
 a63:	7e 70                	jle    ad5 <syscall_exit_probe.part.3+0x275>
 a65:	4b 8d 04 5b          	lea    (%r11,%r11,2),%rax
 a69:	44 89 14 c7          	mov    %r10d,(%rdi,%rax,8)
 a6d:	89 c8                	mov    %ecx,%eax
 a6f:	ba 89 88 88 88       	mov    $0x88888889,%edx
 a74:	f7 ea                	imul   %edx
 a76:	89 c8                	mov    %ecx,%eax
 a78:	c1 f8 1f             	sar    $0x1f,%eax
 a7b:	01 ca                	add    %ecx,%edx
 a7d:	c1 fa 04             	sar    $0x4,%edx
 a80:	29 c2                	sub    %eax,%edx
 a82:	b8 fe ff ff ff       	mov    $0xfffffffe,%eax
 a87:	48 63 fa             	movslq %edx,%rdi
 a8a:	6b d2 1e             	imul   $0x1e,%edx,%edx
 a8d:	29 d1                	sub    %edx,%ecx
 a8f:	d3 c0                	rol    %cl,%eax
 a91:	48 98                	cltq   
 a93:	48 21 04 fd 00 00 00 	and    %rax,0x0(,%rdi,8)
 a9a:	00 
 a9b:	e9 ea fe ff ff       	jmpq   98a <syscall_exit_probe.part.3+0x12a>
 aa0:	48 c7 c7 00 00 00 00 	mov    $0x0,%rdi
 aa7:	e8 00 00 00 00       	callq  aac <syscall_exit_probe.part.3+0x24c>
 aac:	48 8b 05 00 00 00 00 	mov    0x0(%rip),%rax        # ab3 <syscall_exit_probe.part.3+0x253>
 ab3:	48 01 d8             	add    %rbx,%rax
 ab6:	48 3d ff ff 7f 00    	cmp    $0x7fffff,%rax
 abc:	77 21                	ja     adf <syscall_exit_probe.part.3+0x27f>
 abe:	48 c7 c7 00 00 00 00 	mov    $0x0,%rdi
 ac5:	e8 00 00 00 00       	callq  aca <syscall_exit_probe.part.3+0x26a>
 aca:	e9 24 ff ff ff       	jmpq   9f3 <syscall_exit_probe.part.3+0x193>
 acf:	41 89 ca             	mov    %ecx,%r10d
 ad2:	44 89 d9             	mov    %r11d,%ecx
 ad5:	44 89 14 95 00 00 00 	mov    %r10d,0x0(,%rdx,4)
 adc:	00 
 add:	eb 8e                	jmp    a6d <syscall_exit_probe.part.3+0x20d>
 adf:	e8 2c fc ff ff       	callq  710 <dump_to_file>
 ae4:	eb d8                	jmp    abe <syscall_exit_probe.part.3+0x25e>
 ae6:	e8 00 00 00 00       	callq  aeb <syscall_exit_probe.part.3+0x28b>
 aeb:	48 c7 c7 00 00 00 00 	mov    $0x0,%rdi
 af2:	e8 00 00 00 00       	callq  af7 <syscall_exit_probe.part.3+0x297>
 af7:	48 c7 c7 00 00 00 00 	mov    $0x0,%rdi
 afe:	e8 00 00 00 00       	callq  b03 <syscall_exit_probe.part.3+0x2a3>
 b03:	0f 1f 00             	nopl   (%rax)
 b06:	66 2e 0f 1f 84 00 00 	nopw   %cs:0x0(%rax,%rax,1)
 b0d:	00 00 00 

0000000000000b10 <syscall_exit_probe>:
 b10:	e8 00 00 00 00       	callq  b15 <syscall_exit_probe+0x5>
 b15:	55                   	push   %rbp
 b16:	48 89 e5             	mov    %rsp,%rbp
 b19:	48 83 ec 08          	sub    $0x8,%rsp
 b1d:	8b 05 00 00 00 00    	mov    0x0(%rip),%eax        # b23 <syscall_exit_probe+0x13>
 b23:	85 c0                	test   %eax,%eax
 b25:	74 18                	je     b3f <syscall_exit_probe+0x2f>
 b27:	65 48 8b 14 25 00 00 	mov    %gs:0x0,%rdx
 b2e:	00 00 
 b30:	39 82 a8 08 00 00    	cmp    %eax,0x8a8(%rdx)
 b36:	0f 94 c0             	sete   %al
 b39:	84 c0                	test   %al,%al
 b3b:	75 0e                	jne    b4b <syscall_exit_probe+0x3b>
 b3d:	c9                   	leaveq 
 b3e:	c3                   	retq   
 b3f:	48 8b 3d 00 00 00 00 	mov    0x0(%rip),%rdi        # b46 <syscall_exit_probe+0x36>
 b46:	80 3f 00             	cmpb   $0x0,(%rdi)
 b49:	75 0a                	jne    b55 <syscall_exit_probe+0x45>
 b4b:	48 89 f7             	mov    %rsi,%rdi
 b4e:	e8 0d fd ff ff       	callq  860 <syscall_exit_probe.part.3>
 b53:	c9                   	leaveq 
 b54:	c3                   	retq   
 b55:	48 89 75 f8          	mov    %rsi,-0x8(%rbp)
 b59:	e8 00 00 00 00       	callq  b5e <syscall_exit_probe+0x4e>
 b5e:	48 8b 75 f8          	mov    -0x8(%rbp),%rsi
 b62:	eb d5                	jmp    b39 <syscall_exit_probe+0x29>

Disassembly of section .text.unlikely:

0000000000000000 <cleanup>:
   0:	e8 00 00 00 00       	callq  5 <cleanup+0x5>
   5:	80 3d 00 00 00 00 00 	cmpb   $0x0,0x0(%rip)        # c <cleanup+0xc>
   c:	55                   	push   %rbp
   d:	48 89 e5             	mov    %rsp,%rbp
  10:	74 1a                	je     2c <cleanup+0x2c>
  12:	48 8b 35 00 00 00 00 	mov    0x0(%rip),%rsi        # 19 <cleanup+0x19>
  19:	48 8b 3d 00 00 00 00 	mov    0x0(%rip),%rdi        # 20 <cleanup+0x20>
  20:	31 d2                	xor    %edx,%edx
  22:	e8 00 00 00 00       	callq  27 <cleanup+0x27>
  27:	e8 00 00 00 00       	callq  2c <cleanup+0x2c>
  2c:	80 3d 00 00 00 00 00 	cmpb   $0x0,0x0(%rip)        # 33 <cleanup+0x33>
  33:	74 1a                	je     4f <cleanup+0x4f>
  35:	48 8b 35 00 00 00 00 	mov    0x0(%rip),%rsi        # 3c <cleanup+0x3c>
  3c:	48 8b 3d 00 00 00 00 	mov    0x0(%rip),%rdi        # 43 <cleanup+0x43>
  43:	31 d2                	xor    %edx,%edx
  45:	e8 00 00 00 00       	callq  4a <cleanup+0x4a>
  4a:	e8 00 00 00 00       	callq  4f <cleanup+0x4f>
  4f:	5d                   	pop    %rbp
  50:	c3                   	retq   

Disassembly of section .exit.text:

0000000000000000 <cleanup_module>:
   0:	55                   	push   %rbp
   1:	48 8b 35 00 00 00 00 	mov    0x0(%rip),%rsi        # 8 <cleanup_module+0x8>
   8:	48 c7 c7 00 00 00 00 	mov    $0x0,%rdi
   f:	48 89 e5             	mov    %rsp,%rbp
  12:	e8 00 00 00 00       	callq  17 <cleanup_module+0x17>
  17:	48 8b 35 00 00 00 00 	mov    0x0(%rip),%rsi        # 1e <cleanup_module+0x1e>
  1e:	48 c7 c7 00 00 00 00 	mov    $0x0,%rdi
  25:	e8 00 00 00 00       	callq  2a <cleanup_module+0x2a>
  2a:	e8 00 00 00 00       	callq  2f <cleanup_module+0x2f>
  2f:	e8 00 00 00 00       	callq  34 <cleanup_module+0x34>
  34:	48 8b 3d 00 00 00 00 	mov    0x0(%rip),%rdi        # 3b <cleanup_module+0x3b>
  3b:	31 f6                	xor    %esi,%esi
  3d:	e8 00 00 00 00       	callq  42 <cleanup_module+0x42>
  42:	48 c7 c7 00 00 00 00 	mov    $0x0,%rdi
  49:	e8 00 00 00 00       	callq  4e <cleanup_module+0x4e>
  4e:	5d                   	pop    %rbp
  4f:	c3                   	retq   

Disassembly of section .init.text:

0000000000000000 <init_module>:
   0:	e8 00 00 00 00       	callq  5 <init_module+0x5>
   5:	55                   	push   %rbp
   6:	ba c0 01 00 00       	mov    $0x1c0,%edx
   b:	be 42 00 00 00       	mov    $0x42,%esi
  10:	48 c7 c7 00 00 00 00 	mov    $0x0,%rdi
  17:	48 89 e5             	mov    %rsp,%rbp
  1a:	41 55                	push   %r13
  1c:	41 54                	push   %r12
  1e:	53                   	push   %rbx
  1f:	48 c7 c3 00 00 00 00 	mov    $0x0,%rbx
  26:	49 c7 c4 00 00 00 00 	mov    $0x0,%r12
  2d:	4c 8d 6b 40          	lea    0x40(%rbx),%r13
  31:	e8 00 00 00 00       	callq  36 <init_module+0x36>
  36:	31 f6                	xor    %esi,%esi
  38:	48 c7 c7 00 00 00 00 	mov    $0x0,%rdi
  3f:	48 89 05 00 00 00 00 	mov    %rax,0x0(%rip)        # 46 <init_module+0x46>
  46:	c7 05 00 00 00 00 00 	movl   $0x0,0x0(%rip)        # 50 <init_module+0x50>
  4d:	00 00 00 
  50:	e8 00 00 00 00       	callq  55 <init_module+0x55>
  55:	4c 39 eb             	cmp    %r13,%rbx
  58:	74 30                	je     8a <init_module+0x8a>
  5a:	48 83 7b 10 00       	cmpq   $0x0,0x10(%rbx)
  5f:	75 10                	jne    71 <init_module+0x71>
  61:	48 8b 33             	mov    (%rbx),%rsi
  64:	4c 89 e7             	mov    %r12,%rdi
  67:	e8 00 00 00 00       	callq  6c <init_module+0x6c>
  6c:	e8 00 00 00 00       	callq  71 <init_module+0x71>
  71:	48 8b 73 08          	mov    0x8(%rbx),%rsi
  75:	48 8b 7b 10          	mov    0x10(%rbx),%rdi
  79:	31 d2                	xor    %edx,%edx
  7b:	c6 43 18 01          	movb   $0x1,0x18(%rbx)
  7f:	48 83 c3 20          	add    $0x20,%rbx
  83:	e8 00 00 00 00       	callq  88 <init_module+0x88>
  88:	eb cb                	jmp    55 <init_module+0x55>
  8a:	48 8b 15 00 00 00 00 	mov    0x0(%rip),%rdx        # 91 <init_module+0x91>
  91:	8b 35 00 00 00 00    	mov    0x0(%rip),%esi        # 97 <init_module+0x97>
  97:	48 c7 c7 00 00 00 00 	mov    $0x0,%rdi
  9e:	e8 00 00 00 00       	callq  a3 <init_module+0xa3>
  a3:	48 c7 c7 00 00 00 00 	mov    $0x0,%rdi
  aa:	e8 00 00 00 00       	callq  af <init_module+0xaf>
  af:	31 c0                	xor    %eax,%eax
  b1:	5b                   	pop    %rbx
  b2:	41 5c                	pop    %r12
  b4:	41 5d                	pop    %r13
  b6:	5d                   	pop    %rbp
  b7:	c3                   	retq   

Disassembly of section .parainstructions:

0000000000000000 <.parainstructions>:
	...
   8:	54                   	push   %rsp
   9:	07                   	(bad)  
   a:	01 00                	add    %eax,(%rax)
	...
  18:	28 07                	sub    %al,(%rdi)
  1a:	01 00                	add    %eax,(%rax)
	...
  28:	54                   	push   %rsp
  29:	07                   	(bad)  
  2a:	01 00                	add    %eax,(%rax)
	...
  38:	28 07                	sub    %al,(%rdi)
  3a:	01 00                	add    %eax,(%rax)
	...
  48:	54                   	push   %rsp
  49:	07                   	(bad)  
  4a:	01 00                	add    %eax,(%rax)
	...
  58:	28 07                	sub    %al,(%rdi)
  5a:	01 00                	add    %eax,(%rax)

Disassembly of section .smp_locks:

0000000000000000 <.smp_locks>:
	...

Disassembly of section .modinfo:

0000000000000000 <__UNIQUE_ID_license105>:
   0:	6c                   	insb   (%dx),%es:(%rdi)
   1:	69 63 65 6e 73 65 3d 	imul   $0x3d65736e,0x65(%rbx),%esp
   8:	47 50                	rex.RXB push %r8
   a:	4c 00            	rex.WR add %r14b,0x65(%rsi)

000000000000000c <__UNIQUE_ID_version104>:
   c:	76 65                	jbe    73 <__UNIQUE_ID_proc_nametype89+0x4>
   e:	72 73                	jb     83 <__UNIQUE_ID_proc_nametype89+0x14>
  10:	69 6f 6e 3d 30 2e 30 	imul   $0x302e303d,0x6e(%rdi),%ebp
  17:	31 00                	xor    %eax,(%rax)

0000000000000019 <__UNIQUE_ID_description103>:
  19:	64 65 73 63          	fs gs jae 80 <__UNIQUE_ID_proc_nametype89+0x11>
  1d:	72 69                	jb     88 <__UNIQUE_ID_pidtype88>
  1f:	70 74                	jo     95 <__UNIQUE_ID_pidtype88+0xd>
  21:	69 6f 6e 3d 41 20 4c 	imul   $0x4c20413d,0x6e(%rdi),%ebp
  28:	69 6e 75 78 20 6b 65 	imul   $0x656b2078,0x75(%rsi),%ebp
  2f:	6e                   	outsb  %ds:(%rsi),(%dx)
  30:	72 65                	jb     97 <__UNIQUE_ID_pidtype88+0xf>
  32:	6c                   	insb   (%dx),%es:(%rdi)
  33:	20 6d 6f             	and    %ch,0x6f(%rbp)
  36:	64 75 6c             	fs jne a5 <__UNIQUE_ID_srcversion30+0x5>
  39:	65 20 66 6f          	and    %ah,%gs:0x6f(%rsi)
  3d:	72 20                	jb     5f <__UNIQUE_ID_author102+0xd>
  3f:	63 61 70             	movslq 0x70(%rcx),%esp
  42:	74 75                	je     b9 <__UNIQUE_ID_srcversion30+0x19>
  44:	72 69                	jb     af <__UNIQUE_ID_srcversion30+0xf>
  46:	6e                   	outsb  %ds:(%rsi),(%dx)
  47:	67 20 73 79          	and    %dh,0x79(%ebx)
  4b:	73 63                	jae    b0 <__UNIQUE_ID_srcversion30+0x10>
  4d:	61                   	(bad)  
  4e:	6c                   	insb   (%dx),%es:(%rdi)
  4f:	6c                   	insb   (%dx),%es:(%rdi)
  50:	73 00                	jae    52 <__UNIQUE_ID_author102>

0000000000000052 <__UNIQUE_ID_author102>:
  52:	61                   	(bad)  
  53:	75 74                	jne    c9 <__module_depends+0x1>
  55:	68 6f 72 3d 48       	pushq  $0x483d726f
  5a:	75 61                	jne    bd <__UNIQUE_ID_srcversion30+0x1d>
  5c:	6e                   	outsb  %ds:(%rsi),(%dx)
  5d:	61                   	(bad)  
  5e:	20 4c 69 75          	and    %cl,0x75(%rcx,%rbp,2)
	...

0000000000000063 <__UNIQUE_ID_license101>:
  63:	6c                   	insb   (%dx),%es:(%rdi)
  64:	69 63 65 6e 73 65 3d 	imul   $0x3d65736e,0x65(%rbx),%esp
  6b:	47 50                	rex.RXB push %r8
  6d:	4c 00            	rex.WR add %r14b,0x61(%rax)

000000000000006f <__UNIQUE_ID_proc_nametype89>:
  6f:	70 61                	jo     d2 <__UNIQUE_ID_retpoline29+0x1>
  71:	72 6d                	jb     e0 <__UNIQUE_ID_name28+0x3>
  73:	74 79                	je     ee <__UNIQUE_ID_vermagic27+0x2>
  75:	70 65                	jo     dc <__UNIQUE_ID_retpoline29+0xb>
  77:	3d 70 72 6f 63       	cmp    $0x636f7270,%eax
  7c:	5f                   	pop    %rdi
  7d:	6e                   	outsb  %ds:(%rsi),(%dx)
  7e:	61                   	(bad)  
  7f:	6d                   	insl   (%dx),%es:(%rdi)
  80:	65 3a 63 68          	cmp    %gs:0x68(%rbx),%ah
  84:	61                   	(bad)  
  85:	72 70                	jb     f7 <__UNIQUE_ID_vermagic27+0xb>
	...

0000000000000088 <__UNIQUE_ID_pidtype88>:
  88:	70 61                	jo     eb <__UNIQUE_ID_name28+0xe>
  8a:	72 6d                	jb     f9 <__UNIQUE_ID_vermagic27+0xd>
  8c:	74 79                	je     107 <__UNIQUE_ID_vermagic27+0x1b>
  8e:	70 65                	jo     f5 <__UNIQUE_ID_vermagic27+0x9>
  90:	3d 70 69 64 3a       	cmp    $0x3a646970,%eax
  95:	69 6e 74 00 00 00 00 	imul   $0x0,0x74(%rsi),%ebp
  9c:	00 00                	add    %al,(%rax)
	...

00000000000000a0 <__UNIQUE_ID_srcversion30>:
  a0:	73 72                	jae    114 <__UNIQUE_ID_vermagic27+0x28>
  a2:	63 76 65             	movslq 0x65(%rsi),%esi
  a5:	72 73                	jb     11a <__UNIQUE_ID_vermagic27+0x2e>
  a7:	69 6f 6e 3d 30 30 34 	imul   $0x3430303d,0x6e(%rdi),%ebp
  ae:	31 37                	xor    %esi,(%rdi)
  b0:	32 43 32             	xor    0x32(%rbx),%al
  b3:	34 39                	xor    $0x39,%al
  b5:	33 31                	xor    (%rcx),%esi
  b7:	31 30                	xor    %esi,(%rax)
  b9:	37                   	(bad)  
  ba:	44 33 32             	xor    (%rdx),%r14d
  bd:	41 39 41 46          	cmp    %eax,0x46(%r9)
  c1:	32 00                	xor    (%rax),%al
  c3:	00 00                	add    %al,(%rax)
  c5:	00 00                	add    %al,(%rax)
	...

00000000000000c8 <__module_depends>:
  c8:	64 65 70 65          	fs gs jo 131 <hashtable_get+0x1>
  cc:	6e                   	outsb  %ds:(%rsi),(%dx)
  cd:	64 73 3d             	fs jae 10d <__UNIQUE_ID_vermagic27+0x21>
	...

00000000000000d1 <__UNIQUE_ID_retpoline29>:
  d1:	72 65                	jb     138 <hashtable_get+0x8>
  d3:	74 70                	je     145 <hashtable_get+0x15>
  d5:	6f                   	outsl  %ds:(%rsi),(%dx)
  d6:	6c                   	insb   (%dx),%es:(%rdi)
  d7:	69 6e 65 3d 59 00  	imul   $0x6e00593d,0x65(%rsi),%ebp

00000000000000dd <__UNIQUE_ID_name28>:
  dd:	6e                   	outsb  %ds:(%rsi),(%dx)
  de:	61                   	(bad)  
  df:	6d                   	insl   (%dx),%es:(%rdi)
  e0:	65 3d 6d 79 5f 73    	gs cmp $0x735f796d,%eax
  e6:	79 73                	jns    15b <hashtable_get+0x2b>
  e8:	64 69 67 00    	imul   $0x6d726576,%fs:0x0(%rdi),%esp
  ef:	 

00000000000000ec <__UNIQUE_ID_vermagic27>:
  ec:	76 65                	jbe    153 <hashtable_get+0x23>
  ee:	72 6d                	jb     15d <hashtable_get+0x2d>
  f0:	61                   	(bad)  
  f1:	67 69 63 3d 34 2e 31 	imul   $0x35312e34,0x3d(%ebx),%esp
  f8:	35 
  f9:	2e 30 2d 31 34 30 2d 	xor    %ch,%cs:0x2d303431(%rip)        # 2d303531 <pid+0x2cafc401>
 100:	67 65 6e             	outsb  %gs:(%esi),(%dx)
 103:	65 72 69             	gs jb  16f <hashtable_get+0x3f>
 106:	63 20                	movslq (%rax),%esp
 108:	53                   	push   %rbx
 109:	4d 50                	rex.WRB push %r8
 10b:	20 6d 6f             	and    %ch,0x6f(%rbp)
 10e:	64 5f                	fs pop %rdi
 110:	75 6e                	jne    180 <hashtable_get+0x50>
 112:	6c                   	insb   (%dx),%es:(%rdi)
 113:	6f                   	outsl  %ds:(%rsi),(%dx)
 114:	61                   	(bad)  
 115:	64 20 00             	and    %al,%fs:(%rax)

Disassembly of section __param:

0000000000000000 <__param_proc_name>:
	...
  18:	b0 01                	mov    $0x1,%al
  1a:	ff 00                	incl   (%rax)
	...

0000000000000028 <__param_pid>:
	...
  40:	80 01 ff             	addb   $0xff,(%rcx)
	...

Disassembly of section __mcount_loc:

0000000000000000 <__mcount_loc>:
	...
